target datalayout = "e-m:e-p270:32:32-p271:32:32-p272:64:64-i64:64-i128:128-f80:128-n8:16:32:64-S128"
target triple = "x86_64-pc-linux-gnu"

%struct.Expr_ = type { ptr, %union.SourceSpan, i16, %union.anon.29 }
%union.SourceSpan = type { i64 }
%union.anon.29 = type { %struct.ExprAnySwitch }
%struct.ExprAnySwitch = type { i8, %union.anon.31 }
%union.anon.31 = type { %struct.anon.32 }
%struct.anon.32 = type { ptr, %union.SourceSpan, ptr }
%struct.Type_ = type { i32, ptr, ptr, ptr, %union.anon.85, ptr, ptr, %union.anon.87 }
%union.anon.85 = type { ptr }
%union.anon.87 = type { %struct.TypeFunction }
%struct.TypeFunction = type { ptr, ptr, ptr }

@.str.64 = private unnamed_addr constant [35 x i8] c"Expected an expression of type %s.\00", align 1

; Function Attrs: nounwind uwtable
define internal zeroext i1 @sema_check_builtin_args_match(ptr noundef %0, i64 noundef %1) #0 {
  %3 = alloca ptr, align 8
  %4 = alloca ptr, align 8
  %5 = alloca ptr, align 8
  %6 = alloca ptr, align 8
  %7 = alloca i1, align 1
  %8 = alloca ptr, align 8
  %9 = alloca i64, align 8
  %10 = alloca ptr, align 8
  %11 = alloca i64, align 8
  store ptr %0, ptr %8, align 8
  store i64 %1, ptr %9, align 8
  %12 = load ptr, ptr %8, align 8
  %13 = getelementptr inbounds ptr, ptr %12, i64 0
  %14 = load ptr, ptr %13, align 8
  %15 = getelementptr inbounds %struct.Expr_, ptr %14, i32 0, i32 0
  %16 = load ptr, ptr %15, align 8
  %17 = getelementptr inbounds %struct.Type_, ptr %16, i32 0, i32 1
  %18 = load ptr, ptr %17, align 8
  store ptr %18, ptr %4, align 8
  %19 = load ptr, ptr %4, align 8
  %20 = icmp ne ptr %19, null
  br i1 %20, label %22, label %21

21:                                               ; preds = %2
  store ptr null, ptr %3, align 8
  br label %32

22:                                               ; preds = %2
  %23 = load ptr, ptr %4, align 8
  %24 = load i32, ptr %23, align 8
  %25 = icmp eq i32 %24, 40
  br i1 %25, label %26, label %30

26:                                               ; preds = %22
  %27 = load ptr, ptr %4, align 8
  %28 = getelementptr inbounds %struct.Type_, ptr %27, i32 0, i32 7
  %29 = load ptr, ptr %28, align 8
  store ptr %29, ptr %3, align 8
  br label %32

30:                                               ; preds = %22
  %31 = load ptr, ptr %4, align 8
  store ptr %31, ptr %3, align 8
  br label %32

32:                                               ; preds = %30, %26, %21
  %33 = load ptr, ptr %3, align 8
  store ptr %33, ptr %10, align 8
  store i64 1, ptr %11, align 8
  br label %34

34:                                               ; preds = %79, %32
  %35 = load i64, ptr %11, align 8
  %36 = load i64, ptr %9, align 8
  %37 = icmp ult i64 %35, %36
  br i1 %37, label %38, label %82

38:                                               ; preds = %34
  %39 = load ptr, ptr %10, align 8
  %40 = load ptr, ptr %8, align 8
  %41 = load i64, ptr %11, align 8
  %42 = getelementptr inbounds ptr, ptr %40, i64 %41
  %43 = load ptr, ptr %42, align 8
  %44 = getelementptr inbounds %struct.Expr_, ptr %43, i32 0, i32 0
  %45 = load ptr, ptr %44, align 8
  %46 = getelementptr inbounds %struct.Type_, ptr %45, i32 0, i32 1
  %47 = load ptr, ptr %46, align 8
  store ptr %47, ptr %6, align 8
  %48 = load ptr, ptr %6, align 8
  %49 = icmp ne ptr %48, null
  br i1 %49, label %51, label %50

50:                                               ; preds = %38
  store ptr null, ptr %5, align 8
  br label %61

51:                                               ; preds = %38
  %52 = load ptr, ptr %6, align 8
  %53 = load i32, ptr %52, align 8
  %54 = icmp eq i32 %53, 40
  br i1 %54, label %55, label %59

55:                                               ; preds = %51
  %56 = load ptr, ptr %6, align 8
  %57 = getelementptr inbounds %struct.Type_, ptr %56, i32 0, i32 7
  %58 = load ptr, ptr %57, align 8
  store ptr %58, ptr %5, align 8
  br label %61

59:                                               ; preds = %51
  %60 = load ptr, ptr %6, align 8
  store ptr %60, ptr %5, align 8
  br label %61

61:                                               ; preds = %59, %55, %50
  %62 = load ptr, ptr %5, align 8
  %63 = icmp ne ptr %39, %62
  br i1 %63, label %64, label %78

64:                                               ; preds = %61
  %65 = load ptr, ptr %8, align 8
  %66 = load i64, ptr %11, align 8
  %67 = getelementptr inbounds ptr, ptr %65, i64 %66
  %68 = load ptr, ptr %67, align 8
  %69 = getelementptr inbounds %struct.Expr_, ptr %68, i32 0, i32 1
  %70 = load ptr, ptr %8, align 8
  %71 = getelementptr inbounds ptr, ptr %70, i64 0
  %72 = load ptr, ptr %71, align 8
  %73 = getelementptr inbounds %struct.Expr_, ptr %72, i32 0, i32 0
  %74 = load ptr, ptr %73, align 8
  %75 = call ptr @type_quoted_error_string(ptr noundef %74)
  %76 = getelementptr inbounds %union.SourceSpan, ptr %69, i32 0, i32 0
  %77 = load i64, ptr %76, align 8
  call void (i64, ptr, ...) @sema_error_at(i64 %77, ptr noundef @.str.64, ptr noundef %75)
  store i1 false, ptr %7, align 1
  br label %83

78:                                               ; preds = %61
  br label %79

79:                                               ; preds = %78
  %80 = load i64, ptr %11, align 8
  %81 = add i64 %80, 1
  store i64 %81, ptr %11, align 8
  br label %34, !llvm.loop !17

82:                                               ; preds = %34
  store i1 true, ptr %7, align 1
  br label %83

83:                                               ; preds = %82, %64
  %84 = load i1, ptr %7, align 1
  ret i1 %84
}