; Function Attrs: nounwind uwtable
define internal fastcc zeroext i1 @sema_check_builtin_args_match(ptr nocapture noundef readonly %0, i64 noundef %1) unnamed_addr #0 {
  %3 = load ptr, ptr %0, align 8
  %4 = load ptr, ptr %3, align 8
  %5 = getelementptr inbounds i8, ptr %4, i64 8
  %6 = load ptr, ptr %5, align 8
  %.not = icmp eq ptr %6, null
  br i1 %.not, label %13, label %7

7:                                                ; preds = %2
  %8 = load i32, ptr %6, align 8
  %9 = icmp eq i32 %8, 40
  br i1 %9, label %10, label %13

10:                                               ; preds = %7
  %11 = getelementptr inbounds i8, ptr %6, i64 56
  %12 = load ptr, ptr %11, align 8
  br label %13

13:                                               ; preds = %7, %2, %10
  %.020 = phi ptr [ %12, %10 ], [ null, %2 ], [ %6, %7 ]
  %14 = icmp ult i64 %1, 2
  br i1 %14, label %.loopexit, label %.lr.ph

15:                                               ; preds = %30
  %16 = add nuw i64 %.029, 1
  %17 = icmp uge i64 %16, %1
  %exitcond = icmp eq i64 %16, %1
  br i1 %exitcond, label %.loopexit, label %.lr.ph, !llvm.loop !17

.lr.ph:                                           ; preds = %13, %15
  %18 = phi i1 [ %17, %15 ], [ false, %13 ]
  %.029 = phi i64 [ %16, %15 ], [ 1, %13 ]
  %19 = getelementptr inbounds ptr, ptr %0, i64 %.029
  %20 = load ptr, ptr %19, align 8
  %21 = load ptr, ptr %20, align 8
  %22 = getelementptr inbounds i8, ptr %21, i64 8
  %23 = load ptr, ptr %22, align 8
  %.not25 = icmp eq ptr %23, null
  br i1 %.not25, label %30, label %24

24:                                               ; preds = %.lr.ph
  %25 = load i32, ptr %23, align 8
  %26 = icmp eq i32 %25, 40
  br i1 %26, label %27, label %30

27:                                               ; preds = %24
  %28 = getelementptr inbounds i8, ptr %23, i64 56
  %29 = load ptr, ptr %28, align 8
  br label %30

30:                                               ; preds = %24, %.lr.ph, %27
  %.021 = phi ptr [ %29, %27 ], [ null, %.lr.ph ], [ %23, %24 ]
  %.not26 = icmp eq ptr %.020, %.021
  br i1 %.not26, label %15, label %31

31:                                               ; preds = %30
  %32 = getelementptr inbounds i8, ptr %20, i64 8
  %33 = tail call ptr @type_quoted_error_string(ptr noundef %4) #4
  %34 = load i64, ptr %32, align 8
  tail call void (i64, ptr, ...) @sema_error_at(i64 %34, ptr noundef nonnull @.str.64, ptr noundef %33) #4
  br label %.loopexit

.loopexit:                                        ; preds = %15, %13, %31
  %35 = phi i1 [ %18, %31 ], [ true, %13 ], [ %17, %15 ]
  ret i1 %35
}